; Function Attrs: mustprogress uwtable
define noundef i32 @_ZN11floatbuffer7dumppfmE7QString(ptr nocapture noundef nonnull readonly align 8 dereferenceable(32) %0, ptr noundef nonnull %1) local_unnamed_addr #9 align 2 personality ptr @__gxx_personality_v0 {
  %3 = alloca %class.QByteArray, align 8
  call void @_ZN7QString13toUtf8_helperERKS_(ptr dead_on_unwind nonnull writable sret(%class.QByteArray) align 8 %3, ptr noundef nonnull align 8 dereferenceable(8) %1)
  %4 = load ptr, ptr %3, align 8
  %5 = load atomic i32, ptr %4 monotonic, align 4
  %6 = icmp ugt i32 %5, 1
  br i1 %6, label %10, label %7

7:                                                ; preds = %2
  %8 = getelementptr inbounds i8, ptr %4, i64 16
  %9 = load i64, ptr %8, align 8
  %.not.i.i = icmp eq i64 %9, 24
  br i1 %.not.i.i, label %16, label %10

10:                                               ; preds = %7, %2
  %11 = getelementptr inbounds i8, ptr %4, i64 4
  %12 = load i32, ptr %11, align 4
  %13 = add i32 %12, 1
  %14 = getelementptr inbounds i8, ptr %4, i64 8
  %15 = load i32, ptr %14, align 8
  %.lobit.i.i.i = lshr i32 %15, 31
  invoke void @_ZN10QByteArray11reallocDataEj6QFlagsIN10QArrayData16AllocationOptionEE(ptr noundef nonnull align 8 dereferenceable(8) %3, i32 noundef %13, i32 %.lobit.i.i.i)
          to label %.noexc unwind label %50

.noexc:                                           ; preds = %10
  %.pre.i = load ptr, ptr %3, align 8
  %.phi.trans.insert.i = getelementptr inbounds i8, ptr %.pre.i, i64 16
  %.pre1.i = load i64, ptr %.phi.trans.insert.i, align 8
  br label %16

16:                                               ; preds = %.noexc, %7
  %17 = phi i64 [ 24, %7 ], [ %.pre1.i, %.noexc ]
  %18 = phi ptr [ %4, %7 ], [ %.pre.i, %.noexc ]
  %19 = getelementptr inbounds i8, ptr %18, i64 %17
  %20 = call noalias ptr @fopen(ptr noundef %19, ptr noundef nonnull @.str.9)
  %21 = load ptr, ptr %3, align 8
  %22 = load atomic i32, ptr %21 monotonic, align 4
  switch i32 %22, label %_ZN9QtPrivate8RefCount5derefEv.exit.i [
    i32 0, label %_ZN9QtPrivate8RefCount5derefEv.exit.thread2.i
    i32 -1, label %_ZN10QByteArrayD2Ev.exit
  ]

_ZN9QtPrivate8RefCount5derefEv.exit.i:            ; preds = %16
  %23 = atomicrmw sub ptr %21, i32 1 seq_cst, align 4
  %.not.i = icmp eq i32 %23, 1
  br i1 %.not.i, label %_ZN9QtPrivate8RefCount5derefEv.exit._ZN9QtPrivate8RefCount5derefEv.exit.thread2_crit_edge.i, label %_ZN10QByteArrayD2Ev.exit

_ZN9QtPrivate8RefCount5derefEv.exit._ZN9QtPrivate8RefCount5derefEv.exit.thread2_crit_edge.i: ; preds = %_ZN9QtPrivate8RefCount5derefEv.exit.i
  %.pre.i14 = load ptr, ptr %3, align 8
  br label %_ZN9QtPrivate8RefCount5derefEv.exit.thread2.i

_ZN9QtPrivate8RefCount5derefEv.exit.thread2.i:    ; preds = %_ZN9QtPrivate8RefCount5derefEv.exit._ZN9QtPrivate8RefCount5derefEv.exit.thread2_crit_edge.i, %16
  %24 = phi ptr [ %.pre.i14, %_ZN9QtPrivate8RefCount5derefEv.exit._ZN9QtPrivate8RefCount5derefEv.exit.thread2_crit_edge.i ], [ %21, %16 ]
  call void @_ZN10QArrayData10deallocateEPS_mm(ptr noundef %24, i64 noundef 1, i64 noundef 8) #31
  br label %_ZN10QByteArrayD2Ev.exit

_ZN10QByteArrayD2Ev.exit:                         ; preds = %16, %_ZN9QtPrivate8RefCount5derefEv.exit.i, %_ZN9QtPrivate8RefCount5derefEv.exit.thread2.i
  %25 = call i64 @fwrite(ptr nonnull @.str.10, i64 3, i64 1, ptr %20)
  %26 = getelementptr inbounds i8, ptr %0, i64 8
  %27 = load i32, ptr %26, align 8
  %28 = getelementptr inbounds i8, ptr %0, i64 12
  %29 = load i32, ptr %28, align 4
  %30 = call i32 (ptr, ptr, ...) @fprintf(ptr noundef %20, ptr noundef nonnull @.str.11, i32 noundef %27, i32 noundef %29) #31
  %31 = call i64 @fwrite(ptr nonnull @.str.12, i64 10, i64 1, ptr %20)
  %32 = load i32, ptr %26, align 8
  %33 = load i32, ptr %28, align 4
  %34 = mul nsw i32 %33, %32
  %35 = icmp sgt i32 %34, 0
  br i1 %35, label %.lr.ph, label %._crit_edge

.lr.ph:                                           ; preds = %_ZN10QByteArrayD2Ev.exit, %.lr.ph
  %indvars.iv = phi i64 [ %indvars.iv.next, %.lr.ph ], [ 0, %_ZN10QByteArrayD2Ev.exit ]
  %36 = load ptr, ptr %0, align 8
  %37 = getelementptr inbounds float, ptr %36, i64 %indvars.iv
  %38 = call i64 @fwrite(ptr noundef %37, i64 noundef 4, i64 noundef 1, ptr noundef %20)
  %39 = load ptr, ptr %0, align 8
  %40 = getelementptr inbounds float, ptr %39, i64 %indvars.iv
  %41 = call i64 @fwrite(ptr noundef %40, i64 noundef 4, i64 noundef 1, ptr noundef %20)
  %42 = load ptr, ptr %0, align 8
  %43 = getelementptr inbounds float, ptr %42, i64 %indvars.iv
  %44 = call i64 @fwrite(ptr noundef %43, i64 noundef 4, i64 noundef 1, ptr noundef %20)
  %indvars.iv.next = add nuw nsw i64 %indvars.iv, 1
  %45 = load i32, ptr %26, align 8
  %46 = load i32, ptr %28, align 4
  %47 = mul nsw i32 %46, %45
  %48 = sext i32 %47 to i64
  %49 = icmp slt i64 %indvars.iv.next, %48
  br i1 %49, label %.lr.ph, label %._crit_edge, !llvm.loop !32

50:                                               ; preds = %10
  %51 = landingpad { ptr, i32 }
          cleanup
  call void @_ZN10QByteArrayD2Ev(ptr noundef nonnull align 8 dereferenceable(8) %3) #31
  resume { ptr, i32 } %51

._crit_edge:                                      ; preds = %.lr.ph, %_ZN10QByteArrayD2Ev.exit
  %52 = call i32 @fclose(ptr noundef %20)
  ret i32 1
}